; Function Attrs: mustprogress nofree norecurse nosync nounwind willreturn memory(read, inaccessiblemem: none) uwtable
define hidden noundef range(i32 -1, 2) i32 @_ZNK4cvc58internal8Sequence3cmpERKS1_(ptr noundef nonnull readonly align 8 captures(none) dereferenceable(32) %0, ptr noundef nonnull readonly align 8 captures(none) dereferenceable(32) %1) local_unnamed_addr #9 align 2 {
  %3 = load ptr, ptr %0, align 8, !tbaa !11
  %4 = load ptr, ptr %1, align 8, !tbaa !11
  %5 = load ptr, ptr %3, align 8, !tbaa !3
  %6 = load ptr, ptr %4, align 8, !tbaa !3
  %.not17 = icmp eq ptr %5, %6
  br i1 %.not17, label %14, label %7

7:                                                ; preds = %2
  %8 = load i64, ptr %5, align 8
  %9 = and i64 %8, 1099511627775
  %10 = load i64, ptr %6, align 8
  %11 = and i64 %10, 1099511627775
  %12 = icmp samesign ult i64 %9, %11
  %13 = select i1 %12, i32 -1, i32 1
  br label %.loopexit

14:                                               ; preds = %2
  %15 = getelementptr inbounds nuw i8, ptr %0, i64 8
  %16 = getelementptr inbounds nuw i8, ptr %0, i64 16
  %17 = load ptr, ptr %16, align 8, !tbaa !13
  %18 = load ptr, ptr %15, align 8, !tbaa !16
  %19 = ptrtoint ptr %17 to i64
  %20 = ptrtoint ptr %18 to i64
  %21 = sub i64 %19, %20
  %22 = ashr exact i64 %21, 3
  %23 = getelementptr inbounds nuw i8, ptr %1, i64 8
  %24 = getelementptr inbounds nuw i8, ptr %1, i64 16
  %25 = load ptr, ptr %24, align 8, !tbaa !13
  %26 = load ptr, ptr %23, align 8, !tbaa !16
  %27 = ptrtoint ptr %25 to i64
  %28 = ptrtoint ptr %26 to i64
  %29 = sub i64 %27, %28
  %30 = ashr exact i64 %29, 3
  %.not = icmp eq i64 %22, %30
  br i1 %.not, label %.preheader, label %31

.preheader:                                       ; preds = %14
  %.not1921.not = icmp eq ptr %17, %18
  br i1 %.not1921.not, label %.loopexit, label %.lr.ph.preheader

.lr.ph.preheader:                                 ; preds = %.preheader
  %umax = tail call i64 @llvm.umax.i64(i64 %22, i64 1)
  br label %.lr.ph

31:                                               ; preds = %14
  %32 = icmp ult i64 %22, %30
  %33 = select i1 %32, i32 -1, i32 1
  br label %.loopexit

34:                                               ; preds = %.lr.ph
  %35 = add nuw i64 %.01622, 1
  %exitcond.not = icmp eq i64 %35, %umax
  br i1 %exitcond.not, label %.loopexit, label %.lr.ph, !llvm.loop !26

.lr.ph:                                           ; preds = %.lr.ph.preheader, %34
  %.01622 = phi i64 [ %35, %34 ], [ 0, %.lr.ph.preheader ]
  %36 = getelementptr inbounds nuw %"class.cvc5::internal::NodeTemplate", ptr %18, i64 %.01622
  %37 = getelementptr inbounds nuw %"class.cvc5::internal::NodeTemplate", ptr %26, i64 %.01622
  %38 = load ptr, ptr %36, align 8, !tbaa !19
  %39 = load ptr, ptr %37, align 8, !tbaa !19
  %.not18 = icmp eq ptr %38, %39
  br i1 %.not18, label %34, label %40

40:                                               ; preds = %.lr.ph
  %41 = load i64, ptr %38, align 8
  %42 = and i64 %41, 1099511627775
  %43 = load i64, ptr %39, align 8
  %44 = and i64 %43, 1099511627775
  %45 = icmp samesign ult i64 %42, %44
  %46 = select i1 %45, i32 -1, i32 1
  br label %.loopexit

.loopexit:                                        ; preds = %34, %.preheader, %40, %31, %7
  %.015 = phi i32 [ %13, %7 ], [ %33, %31 ], [ %46, %40 ], [ 0, %.preheader ], [ 0, %34 ]
  ret i32 %.015
}